; Function Attrs: inlinehint mustprogress uwtable
define internal fastcc void @"_ZZN16PJCoordOperationC1EiddddddddP8PJconstsRKNSt7__cxx1112basic_stringIcSt11char_traitsIcESaIcEEEddPKcPKS0_SD_ENK3$_0clESD_RbSF_"(ptr noundef nonnull %0, ptr noundef nonnull writeonly align 1 captures(none) dereferenceable(1) %1, ptr noundef nonnull writeonly align 1 captures(none) dereferenceable(1) %2) unnamed_addr #6 align 2 {
  %4 = alloca ptr, align 8
  %5 = alloca double, align 8
  %6 = tail call i32 @proj_get_type(ptr noundef nonnull %0)
  %7 = and i32 %6, -2
  %or.cond = icmp eq i32 %7, 12
  br i1 %or.cond, label %8, label %29

8:                                                ; preds = %3
  %9 = load ptr, ptr %0, align 8, !tbaa !22
  %10 = tail call ptr @proj_crs_get_coordinate_system(ptr noundef %9, ptr noundef nonnull %0)
  call void @llvm.lifetime.start.p0(i64 8, ptr nonnull %4) #15
  store ptr @.str, ptr %4, align 8, !tbaa !60
  call void @llvm.lifetime.start.p0(i64 8, ptr nonnull %5) #15
  store double 0.000000e+00, ptr %5, align 8, !tbaa !61
  %11 = load ptr, ptr %0, align 8, !tbaa !22
  %12 = call i32 @proj_cs_get_axis_info(ptr noundef %11, ptr noundef %10, i32 noundef 0, ptr noundef null, ptr noundef null, ptr noundef nonnull %4, ptr noundef nonnull %5, ptr noundef null, ptr noundef null, ptr noundef null)
  %.not = icmp eq i32 %12, 0
  br i1 %.not, label %16, label %13

13:                                               ; preds = %8
  %14 = load ptr, ptr %4, align 8, !tbaa !60
  %15 = call noundef zeroext i1 @_ZN5osgeo4proj8internal8ci_equalEPKcS3_(ptr noundef %14, ptr noundef nonnull @.str.9) #15
  br i1 %15, label %.sink.split, label %16

16:                                               ; preds = %13, %8
  %17 = load ptr, ptr %0, align 8, !tbaa !22
  %18 = call i32 @proj_cs_get_axis_info(ptr noundef %17, ptr noundef %10, i32 noundef 1, ptr noundef null, ptr noundef null, ptr noundef nonnull %4, ptr noundef nonnull %5, ptr noundef null, ptr noundef null, ptr noundef null)
  %.not12 = icmp eq i32 %18, 0
  br i1 %.not12, label %27, label %19

19:                                               ; preds = %16
  %20 = load ptr, ptr %4, align 8, !tbaa !60
  %21 = call noundef zeroext i1 @_ZN5osgeo4proj8internal8ci_equalEPKcS3_(ptr noundef %20, ptr noundef nonnull @.str.9) #15
  br i1 %21, label %.sink.split, label %27

.sink.split:                                      ; preds = %19, %13
  %.sink1 = phi ptr [ %1, %13 ], [ %2, %19 ]
  %22 = load double, ptr %5, align 8, !tbaa !61
  %23 = fadd double %22, 0xBF91DF46A2529D39
  %24 = call double @llvm.fabs.f64(double %23)
  %25 = fcmp olt double %24, 0x3D06849B86A12B9B
  %26 = zext i1 %25 to i8
  store i8 %26, ptr %.sink1, align 1, !tbaa !62
  br label %27

27:                                               ; preds = %.sink.split, %16, %19
  %28 = call ptr @proj_destroy(ptr noundef %10)
  call void @llvm.lifetime.end.p0(i64 8, ptr nonnull %5) #15
  call void @llvm.lifetime.end.p0(i64 8, ptr nonnull %4) #15
  br label %29

29:                                               ; preds = %3, %27
  ret void
}